; Function Attrs: mustprogress nounwind uwtable
define hidden void @_ZN9xmlStream5flushEv(ptr nocapture noundef nonnull align 8 dereferenceable(152) %0) unnamed_addr #0 align 2 {
  %2 = getelementptr inbounds i8, ptr %0, i64 56
  %3 = load ptr, ptr %2, align 8
  %4 = load ptr, ptr %3, align 8
  %5 = load ptr, ptr %4, align 8
  tail call void %5(ptr noundef nonnull align 8 dereferenceable(56) %3) #8
  %6 = getelementptr inbounds i8, ptr %0, i64 24
  %7 = load i64, ptr %6, align 8
  %8 = getelementptr inbounds i8, ptr %0, i64 16
  %9 = load i32, ptr %8, align 8
  %10 = sext i32 %9 to i64
  %11 = add i64 %7, %10
  %12 = getelementptr inbounds i8, ptr %0, i64 64
  store i64 %11, ptr %12, align 8
  ret void
}